target datalayout = "e-m:e-p270:32:32-p271:32:32-p272:64:64-i64:64-i128:128-f80:128-n8:16:32:64-S128"
target triple = "x86_64-pc-linux-gnu"

%struct.AggState = type { %struct.ScanState, ptr, i32, i32, i32, i32, ptr, i32, i32, ptr, ptr, ptr, ptr, ptr, ptr, ptr, ptr, i8, i8, i32, i32, ptr, ptr, ptr, i32, i8, i32, ptr, ptr, ptr, ptr, ptr, ptr, i8, i32, ptr, ptr, ptr, ptr, ptr, ptr, i8, i8, i64, i64, i32, double, i64, i64, i64, i32, ptr, ptr, ptr, ptr }
%struct.ScanState = type { %struct.PlanState, ptr, ptr, ptr }
%struct.PlanState = type { i32, ptr, ptr, ptr, ptr, ptr, ptr, ptr, ptr, ptr, ptr, ptr, ptr, ptr, ptr, ptr, ptr, ptr, i8, ptr, ptr, ptr, ptr, ptr, i8, i8, i8, i8, i8, i8, i8, i8 }
%struct.AggStatePerAggData = type { ptr, i32, i32, %struct.FmgrInfo, i32, ptr, i16, i8, i8 }
%struct.FmgrInfo = type { ptr, i32, i16, i8, i8, i8, ptr, ptr, ptr }
%struct.AggStatePerTransData = type { ptr, i8, i8, i32, i32, i32, i32, i32, i32, %struct.FmgrInfo, %struct.FmgrInfo, %struct.FmgrInfo, i32, i32, i32, ptr, ptr, ptr, ptr, %struct.FmgrInfo, ptr, i64, i8, i16, i16, i8, i8, ptr, ptr, ptr, i64, i8, i8, ptr, ptr, ptr, ptr }
%struct.Node = type { i32 }
%struct.FunctionCallInfoBaseData = type { ptr, ptr, ptr, i32, i8, i16, [0 x %struct.NullableDatum] }
%struct.NullableDatum = type { i64, i8 }

; Function Attrs: nounwind uwtable
define dso_local zeroext i1 @AggStateIsShared(ptr noundef %0) #0 {
  %2 = alloca i1, align 1
  %3 = alloca ptr, align 8
  %4 = alloca ptr, align 8
  %5 = alloca ptr, align 8
  %6 = alloca ptr, align 8
  %7 = alloca i32, align 4
  store ptr %0, ptr %3, align 8
  %8 = load ptr, ptr %3, align 8
  %9 = getelementptr inbounds nuw %struct.FunctionCallInfoBaseData, ptr %8, i32 0, i32 1
  %10 = load ptr, ptr %9, align 8
  %11 = icmp ne ptr %10, null
  br i1 %11, label %12, label %55

12:                                               ; preds = %1
  %13 = load ptr, ptr %3, align 8
  %14 = getelementptr inbounds nuw %struct.FunctionCallInfoBaseData, ptr %13, i32 0, i32 1
  %15 = load ptr, ptr %14, align 8
  %16 = getelementptr inbounds nuw %struct.Node, ptr %15, i32 0, i32 0
  %17 = load i32, ptr %16, align 4
  %18 = icmp eq i32 %17, 428
  br i1 %18, label %19, label %55

19:                                               ; preds = %12
  call void @llvm.lifetime.start.p0(i64 8, ptr %4) #9
  %20 = load ptr, ptr %3, align 8
  %21 = getelementptr inbounds nuw %struct.FunctionCallInfoBaseData, ptr %20, i32 0, i32 1
  %22 = load ptr, ptr %21, align 8
  store ptr %22, ptr %4, align 8
  call void @llvm.lifetime.start.p0(i64 8, ptr %5) #9
  call void @llvm.lifetime.start.p0(i64 8, ptr %6) #9
  %23 = load ptr, ptr %4, align 8
  %24 = getelementptr inbounds nuw %struct.AggState, ptr %23, i32 0, i32 15
  %25 = load ptr, ptr %24, align 8
  store ptr %25, ptr %5, align 8
  %26 = load ptr, ptr %5, align 8
  %27 = icmp ne ptr %26, null
  br i1 %27, label %28, label %40

28:                                               ; preds = %19
  %29 = load ptr, ptr %4, align 8
  %30 = getelementptr inbounds nuw %struct.AggState, ptr %29, i32 0, i32 10
  %31 = load ptr, ptr %30, align 8
  %32 = load ptr, ptr %5, align 8
  %33 = getelementptr inbounds nuw %struct.AggStatePerAggData, ptr %32, i32 0, i32 1
  %34 = load i32, ptr %33, align 8
  %35 = sext i32 %34 to i64
  %36 = getelementptr inbounds %struct.AggStatePerTransData, ptr %31, i64 %35
  %37 = getelementptr inbounds nuw %struct.AggStatePerTransData, ptr %36, i32 0, i32 1
  %38 = load i8, ptr %37, align 8, !range !4, !noundef !5
  %39 = trunc i8 %38 to i1
  store i1 %39, ptr %2, align 1
  store i32 1, ptr %7, align 4
  br label %52

40:                                               ; preds = %19
  %41 = load ptr, ptr %4, align 8
  %42 = getelementptr inbounds nuw %struct.AggState, ptr %41, i32 0, i32 16
  %43 = load ptr, ptr %42, align 8
  store ptr %43, ptr %6, align 8
  %44 = load ptr, ptr %6, align 8
  %45 = icmp ne ptr %44, null
  br i1 %45, label %46, label %51

46:                                               ; preds = %40
  %47 = load ptr, ptr %6, align 8
  %48 = getelementptr inbounds nuw %struct.AggStatePerTransData, ptr %47, i32 0, i32 1
  %49 = load i8, ptr %48, align 8, !range !4, !noundef !5
  %50 = trunc i8 %49 to i1
  store i1 %50, ptr %2, align 1
  store i32 1, ptr %7, align 4
  br label %52

51:                                               ; preds = %40
  store i32 0, ptr %7, align 4
  br label %52

52:                                               ; preds = %51, %46, %28
  call void @llvm.lifetime.end.p0(i64 8, ptr %6) #9
  call void @llvm.lifetime.end.p0(i64 8, ptr %5) #9
  call void @llvm.lifetime.end.p0(i64 8, ptr %4) #9
  %53 = load i32, ptr %7, align 4
  switch i32 %53, label %58 [
    i32 0, label %54
    i32 1, label %56
  ]

54:                                               ; preds = %52
  br label %55

55:                                               ; preds = %54, %12, %1
  store i1 true, ptr %2, align 1
  br label %56

56:                                               ; preds = %55, %52
  %57 = load i1, ptr %2, align 1
  ret i1 %57

58:                                               ; preds = %52
  unreachable
}