; Function Attrs: mustprogress nofree norecurse nosync nounwind willreturn memory(read, inaccessiblemem: none) uwtable
define dso_local zeroext i1 @AggStateIsShared(ptr noundef readonly captures(none) %0) local_unnamed_addr #7 {
  %2 = getelementptr inbounds nuw i8, ptr %0, i64 8
  %3 = load ptr, ptr %2, align 8
  %.not = icmp eq ptr %3, null
  br i1 %.not, label %.thread, label %4

4:                                                ; preds = %1
  %5 = load i32, ptr %3, align 4
  %6 = icmp eq i32 %5, 428
  br i1 %6, label %7, label %.thread

7:                                                ; preds = %4
  %8 = getelementptr inbounds nuw i8, ptr %3, i64 312
  %9 = load ptr, ptr %8, align 8
  %.not15 = icmp eq ptr %9, null
  br i1 %.not15, label %19, label %10

10:                                               ; preds = %7
  %11 = getelementptr inbounds nuw i8, ptr %3, i64 272
  %12 = load ptr, ptr %11, align 8
  %13 = getelementptr inbounds nuw i8, ptr %9, i64 8
  %14 = load i32, ptr %13, align 8
  %15 = sext i32 %14 to i64
  %16 = getelementptr inbounds %struct.AggStatePerTransData, ptr %12, i64 %15, i32 1
  %17 = load i8, ptr %16, align 8, !range !6, !noundef !7
  %18 = trunc nuw i8 %17 to i1
  br label %.thread

19:                                               ; preds = %7
  %20 = getelementptr inbounds nuw i8, ptr %3, i64 320
  %21 = load ptr, ptr %20, align 8
  %.not16 = icmp eq ptr %21, null
  br i1 %.not16, label %.thread, label %22

22:                                               ; preds = %19
  %23 = getelementptr inbounds nuw i8, ptr %21, i64 8
  %24 = load i8, ptr %23, align 8, !range !6, !noundef !7
  %25 = trunc nuw i8 %24 to i1
  br label %.thread

.thread:                                          ; preds = %22, %10, %1, %4, %19
  %.1 = phi i1 [ true, %19 ], [ true, %4 ], [ true, %1 ], [ %25, %22 ], [ %18, %10 ]
  ret i1 %.1
}